; Function Attrs: mustprogress nofree norecurse nosync nounwind willreturn memory(argmem: write) uwtable
define void @_ZN7jsonnet7JsonnetC2Ev(ptr noundef nonnull align 8 dereferenceable(40) initializes((0, 8)) %0) unnamed_addr #0 align 2 personality ptr @__gxx_personality_v0 {
  store ptr null, ptr %0, align 8, !tbaa !6
  %2 = getelementptr inbounds nuw i8, ptr %0, i64 8
  %3 = getelementptr inbounds nuw i8, ptr %0, i64 24
  store ptr %3, ptr %2, align 8, !tbaa !16
  %4 = getelementptr inbounds nuw i8, ptr %0, i64 16
  store i64 0, ptr %4, align 8, !tbaa !17
  store i8 0, ptr %3, align 8, !tbaa !18
  ret void
}